; Function Attrs: mustprogress nofree norecurse nosync nounwind willreturn memory(argmem: readwrite) uwtable
define dso_local void @sdsclear(ptr nocapture noundef %s) local_unnamed_addr #7 {
entry:
  %arrayidx.i = getelementptr inbounds i8, ptr %s, i64 -1
  %0 = load i8, ptr %arrayidx.i, align 1
  %1 = and i8 %0, 7
  switch i8 %1, label %sdssetlen.exit [
    i8 0, label %sw.bb.i
    i8 1, label %sw.bb2.i
    i8 2, label %sw.bb5.i
    i8 3, label %sw.bb9.i
    i8 4, label %sw.bb13.i
  ]

sw.bb.i:                                          ; preds = %entry
  store i8 0, ptr %arrayidx.i, align 1
  br label %sdssetlen.exit

sw.bb2.i:                                         ; preds = %entry
  %add.ptr4.i = getelementptr inbounds i8, ptr %s, i64 -3
  store i8 0, ptr %add.ptr4.i, align 1
  br label %sdssetlen.exit

sw.bb5.i:                                         ; preds = %entry
  %add.ptr7.i = getelementptr inbounds i8, ptr %s, i64 -5
  store i16 0, ptr %add.ptr7.i, align 1
  br label %sdssetlen.exit

sw.bb9.i:                                         ; preds = %entry
  %add.ptr11.i = getelementptr inbounds i8, ptr %s, i64 -9
  store i32 0, ptr %add.ptr11.i, align 1
  br label %sdssetlen.exit

sw.bb13.i:                                        ; preds = %entry
  %add.ptr14.i = getelementptr inbounds i8, ptr %s, i64 -17
  store i64 0, ptr %add.ptr14.i, align 1
  br label %sdssetlen.exit

sdssetlen.exit:                                   ; preds = %entry, %sw.bb.i, %sw.bb2.i, %sw.bb5.i, %sw.bb9.i, %sw.bb13.i
  store i8 0, ptr %s, align 1
  ret void
}